; Function Attrs: nounwind uwtable
define dso_local range(i32 -1, 1) i32 @clientSetName(ptr noundef captures(none) %0, ptr noundef %1, ptr noundef writeonly captures(address_is_null) %2) local_unnamed_addr #0 {
  %.not.i = icmp eq ptr %1, null
  br i1 %.not.i, label %.critedge, label %4

4:                                                ; preds = %3
  %5 = getelementptr inbounds nuw i8, ptr %1, i64 8
  %6 = load ptr, ptr %5, align 8, !tbaa !6
  %7 = getelementptr inbounds i8, ptr %6, i64 -1
  %8 = load i8, ptr %7, align 1, !tbaa !12
  %9 = zext i8 %8 to i32
  %10 = and i32 %9, 7
  switch i32 %10, label %.critedge [
    i32 0, label %11
    i32 1, label %14
    i32 2, label %18
    i32 3, label %22
    i32 4, label %26
  ]

11:                                               ; preds = %4
  %12 = lshr i32 %9, 3
  %13 = zext nneg i32 %12 to i64
  br label %sdslen.exit.i

14:                                               ; preds = %4
  %15 = getelementptr inbounds i8, ptr %6, i64 -3
  %16 = load i8, ptr %15, align 1, !tbaa !12
  %17 = zext i8 %16 to i64
  br label %sdslen.exit.i

18:                                               ; preds = %4
  %19 = getelementptr inbounds i8, ptr %6, i64 -5
  %20 = load i16, ptr %19, align 1, !tbaa !13
  %21 = zext i16 %20 to i64
  br label %sdslen.exit.i

22:                                               ; preds = %4
  %23 = getelementptr inbounds i8, ptr %6, i64 -9
  %24 = load i32, ptr %23, align 1, !tbaa !15
  %25 = zext i32 %24 to i64
  br label %sdslen.exit.i

26:                                               ; preds = %4
  %27 = getelementptr inbounds i8, ptr %6, i64 -17
  %28 = load i64, ptr %27, align 1, !tbaa !16
  br label %sdslen.exit.i

sdslen.exit.i:                                    ; preds = %26, %22, %18, %14, %11
  %.0.i.i = phi i64 [ %28, %26 ], [ %25, %22 ], [ %21, %18 ], [ %17, %14 ], [ %13, %11 ]
  %29 = and i64 %.0.i.i, 4294967295
  %30 = icmp eq i64 %29, 0
  br i1 %30, label %.thread, label %31

31:                                               ; preds = %sdslen.exit.i
  %32 = load i8, ptr %6, align 1, !tbaa !12
  %.not7.i.i = icmp eq i8 %32, 0
  br i1 %.not7.i.i, label %.thread, label %.lr.ph.i.i

33:                                               ; preds = %.lr.ph.i.i
  %34 = getelementptr inbounds nuw i8, ptr %.08.i.i, i64 1
  %35 = load i8, ptr %34, align 1, !tbaa !12
  %.not.i.i = icmp eq i8 %35, 0
  br i1 %.not.i.i, label %.thread, label %.lr.ph.i.i, !llvm.loop !238

.lr.ph.i.i:                                       ; preds = %31, %33
  %36 = phi i8 [ %35, %33 ], [ %32, %31 ]
  %.08.i.i = phi ptr [ %34, %33 ], [ %6, %31 ]
  %37 = add i8 %36, -127
  %or.cond.i.i = icmp ult i8 %37, -94
  br i1 %or.cond.i.i, label %validateClientAttr.exit.i, label %33

validateClientAttr.exit.i:                        ; preds = %.lr.ph.i.i
  %.not9.i = icmp eq ptr %2, null
  br i1 %.not9.i, label %validateClientName.exit, label %38

38:                                               ; preds = %validateClientAttr.exit.i
  store ptr @.str.93, ptr %2, align 8, !tbaa !107
  br label %validateClientName.exit

.thread:                                          ; preds = %33, %31, %sdslen.exit.i
  switch i32 %10, label %.critedge [
    i32 0, label %39
    i32 1, label %42
    i32 2, label %46
    i32 3, label %50
    i32 4, label %54
  ]

39:                                               ; preds = %.thread
  %40 = lshr i32 %9, 3
  %41 = zext nneg i32 %40 to i64
  br label %sdslen.exit

42:                                               ; preds = %.thread
  %43 = getelementptr inbounds i8, ptr %6, i64 -3
  %44 = load i8, ptr %43, align 1, !tbaa !12
  %45 = zext i8 %44 to i64
  br label %sdslen.exit

46:                                               ; preds = %.thread
  %47 = getelementptr inbounds i8, ptr %6, i64 -5
  %48 = load i16, ptr %47, align 1, !tbaa !13
  %49 = zext i16 %48 to i64
  br label %sdslen.exit

50:                                               ; preds = %.thread
  %51 = getelementptr inbounds i8, ptr %6, i64 -9
  %52 = load i32, ptr %51, align 1, !tbaa !15
  %53 = zext i32 %52 to i64
  br label %sdslen.exit

54:                                               ; preds = %.thread
  %55 = getelementptr inbounds i8, ptr %6, i64 -17
  %56 = load i64, ptr %55, align 1, !tbaa !16
  br label %sdslen.exit

sdslen.exit:                                      ; preds = %39, %42, %46, %50, %54
  %.0.i18 = phi i64 [ %56, %54 ], [ %53, %50 ], [ %49, %46 ], [ %45, %42 ], [ %41, %39 ]
  %57 = and i64 %.0.i18, 4294967295
  %58 = icmp eq i64 %57, 0
  br i1 %58, label %.critedge, label %63

.critedge:                                        ; preds = %4, %.thread, %3, %sdslen.exit
  %59 = getelementptr inbounds nuw i8, ptr %0, i64 40
  %60 = load ptr, ptr %59, align 8, !tbaa !165
  %.not17 = icmp eq ptr %60, null
  br i1 %.not17, label %62, label %61

61:                                               ; preds = %.critedge
  tail call void @decrRefCount(ptr noundef nonnull %60) #26
  br label %62

62:                                               ; preds = %61, %.critedge
  store ptr null, ptr %59, align 8, !tbaa !165
  br label %validateClientName.exit

63:                                               ; preds = %sdslen.exit
  %64 = getelementptr inbounds nuw i8, ptr %0, i64 40
  %65 = load ptr, ptr %64, align 8, !tbaa !165
  %.not16 = icmp eq ptr %65, null
  br i1 %.not16, label %67, label %66

66:                                               ; preds = %63
  tail call void @decrRefCount(ptr noundef nonnull %65) #26
  br label %67

67:                                               ; preds = %66, %63
  store ptr %1, ptr %64, align 8, !tbaa !165
  tail call void @incrRefCount(ptr noundef nonnull %1) #26
  br label %validateClientName.exit

validateClientName.exit:                          ; preds = %38, %validateClientAttr.exit.i, %62, %67
  %.0 = phi i32 [ 0, %67 ], [ 0, %62 ], [ -1, %validateClientAttr.exit.i ], [ -1, %38 ]
  ret i32 %.0
}